; Function Attrs: mustprogress uwtable
define void @_ZNK32pxrInternal_v0_24__pxrReserved__26UsdPrimCompositionQueryArc22GetIntroducingPrimPathEv(ptr dead_on_unwind noalias writable sret(%"class.pxrInternal_v0_24__pxrReserved__::SdfPath") align 4 %0, ptr noundef nonnull align 8 dereferenceable(64) %1) local_unnamed_addr #0 align 2 {
  %3 = tail call noundef zeroext i1 @_ZNK32pxrInternal_v0_24__pxrReserved__10PcpNodeRef10IsRootNodeEv(ptr noundef nonnull align 8 dereferenceable(16) %1)
  br i1 %3, label %4, label %5

4:                                                ; preds = %2
  store i64 0, ptr %0, align 4
  br label %7

5:                                                ; preds = %2
  %6 = getelementptr inbounds nuw i8, ptr %1, i64 16
  tail call void @_ZNK32pxrInternal_v0_24__pxrReserved__10PcpNodeRef12GetIntroPathEv(ptr dead_on_unwind writable sret(%"class.pxrInternal_v0_24__pxrReserved__::SdfPath") align 4 %0, ptr noundef nonnull align 8 dereferenceable(16) %6)
  br label %7

7:                                                ; preds = %5, %4
  ret void
}